; Function Attrs: mustprogress nounwind uwtable
define dso_local void @_ZN4node9inspector8protocol11WorkerAgent7disableEv(ptr noalias sret(%"class.node::inspector::protocol::DispatchResponse") align 8 %agg.result, ptr nocapture noundef nonnull align 8 dereferenceable(64) %this) unnamed_addr #1 align 2 {
entry:
  %event_handle_ = getelementptr inbounds i8, ptr %this, i64 40
  %0 = load ptr, ptr %event_handle_, align 8
  store ptr null, ptr %event_handle_, align 8
  %tobool.not.i.i = icmp eq ptr %0, null
  br i1 %tobool.not.i.i, label %_ZNSt10unique_ptrIN4node9inspector24WorkerManagerEventHandleESt14default_deleteIS2_EE5resetEPS2_.exit, label %_ZNKSt14default_deleteIN4node9inspector24WorkerManagerEventHandleEEclEPS2_.exit.i.i

_ZNKSt14default_deleteIN4node9inspector24WorkerManagerEventHandleEEclEPS2_.exit.i.i: ; preds = %entry
  tail call void @_ZN4node9inspector24WorkerManagerEventHandleD1Ev(ptr noundef nonnull align 8 dereferenceable(20) %0) #14
  tail call void @_ZdlPv(ptr noundef nonnull %0) #16
  br label %_ZNSt10unique_ptrIN4node9inspector24WorkerManagerEventHandleESt14default_deleteIS2_EE5resetEPS2_.exit

_ZNSt10unique_ptrIN4node9inspector24WorkerManagerEventHandleESt14default_deleteIS2_EE5resetEPS2_.exit: ; preds = %entry, %_ZNKSt14default_deleteIN4node9inspector24WorkerManagerEventHandleEEclEPS2_.exit.i.i
  tail call void @_ZN4node9inspector8protocol16DispatchResponse2OKEv(ptr sret(%"class.node::inspector::protocol::DispatchResponse") align 8 %agg.result) #14
  ret void
}